target datalayout = "e-m:e-p270:32:32-p271:32:32-p272:64:64-i64:64-i128:128-f80:128-n8:16:32:64-S128"
target triple = "x86_64-pc-linux-gnu"

; Function Attrs: nounwind uwtable
define internal void @eotf_linear(double noundef %0, double noundef %1, ptr noundef %2) #0 {
  %4 = alloca double, align 8
  %5 = alloca double, align 8
  %6 = alloca ptr, align 8
  %7 = alloca i32, align 4
  store double %0, ptr %4, align 8, !tbaa !27
  store double %1, ptr %5, align 8, !tbaa !27
  store ptr %2, ptr %6, align 8, !tbaa !30
  call void @llvm.lifetime.start.p0(i64 4, ptr %7) #7
  store i32 0, ptr %7, align 4, !tbaa !4
  br label %8

8:                                                ; preds = %27, %3
  %9 = load i32, ptr %7, align 4, !tbaa !4
  %10 = icmp slt i32 %9, 3
  br i1 %10, label %12, label %11

11:                                               ; preds = %8
  call void @llvm.lifetime.end.p0(i64 4, ptr %7) #7
  br label %30

12:                                               ; preds = %8
  %13 = load double, ptr %4, align 8, !tbaa !27
  %14 = load double, ptr %5, align 8, !tbaa !27
  %15 = fsub nsz double %13, %14
  %16 = load ptr, ptr %6, align 8, !tbaa !30
  %17 = load i32, ptr %7, align 4, !tbaa !4
  %18 = sext i32 %17 to i64
  %19 = getelementptr inbounds double, ptr %16, i64 %18
  %20 = load double, ptr %19, align 8, !tbaa !27
  %21 = load double, ptr %5, align 8, !tbaa !27
  %22 = call nsz double @llvm.fmuladd.f64(double %15, double %20, double %21)
  %23 = load ptr, ptr %6, align 8, !tbaa !30
  %24 = load i32, ptr %7, align 4, !tbaa !4
  %25 = sext i32 %24 to i64
  %26 = getelementptr inbounds double, ptr %23, i64 %25
  store double %22, ptr %26, align 8, !tbaa !27
  br label %27

27:                                               ; preds = %12
  %28 = load i32, ptr %7, align 4, !tbaa !4
  %29 = add nsw i32 %28, 1
  store i32 %29, ptr %7, align 4, !tbaa !4
  br label %8, !llvm.loop !33

30:                                               ; preds = %11
  ret void
}